target datalayout = "e-m:e-p270:32:32-p271:32:32-p272:64:64-i64:64-i128:128-f80:128-n8:16:32:64-S128"
target triple = "x86_64-pc-linux-gnu"

%struct.OSSL_TIME = type { i64 }
%struct.ssl_session_st = type { i32, i64, [64 x i8], [512 x i8], i64, [32 x i8], i64, [32 x i8], ptr, ptr, i32, ptr, ptr, ptr, i64, %struct.OSSL_TIME, %struct.OSSL_TIME, %struct.OSSL_TIME, i32, ptr, i64, i32, %struct.crypto_ex_data_st, %struct.anon, ptr, ptr, i64, i32, ptr, ptr, ptr, %struct.CRYPTO_REF_COUNT }
%struct.crypto_ex_data_st = type { ptr, ptr }
%struct.anon = type { ptr, ptr, i64, i64, i32, i32, ptr, i64, i8 }
%struct.CRYPTO_REF_COUNT = type { i32 }

@.str = private unnamed_addr constant [26 x i8] c"../openssl/ssl/ssl_sess.c\00", align 1

; Function Attrs: nounwind uwtable
define i32 @SSL_SESSION_set1_alpn_selected(ptr noundef %0, ptr noundef %1, i64 noundef %2) #0 {
  %4 = alloca i32, align 4
  %5 = alloca ptr, align 8
  %6 = alloca ptr, align 8
  %7 = alloca i64, align 8
  store ptr %0, ptr %5, align 8, !tbaa !3
  store ptr %1, ptr %6, align 8, !tbaa !127
  store i64 %2, ptr %7, align 8, !tbaa !9
  %8 = load ptr, ptr %5, align 8, !tbaa !3
  %9 = getelementptr inbounds nuw %struct.ssl_session_st, ptr %8, i32 0, i32 23
  %10 = getelementptr inbounds nuw %struct.anon, ptr %9, i32 0, i32 6
  %11 = load ptr, ptr %10, align 8, !tbaa !88
  call void @CRYPTO_free(ptr noundef %11, ptr noundef @.str, i32 noundef 1072)
  %12 = load ptr, ptr %6, align 8, !tbaa !127
  %13 = icmp eq ptr %12, null
  br i1 %13, label %17, label %14

14:                                               ; preds = %3
  %15 = load i64, ptr %7, align 8, !tbaa !9
  %16 = icmp eq i64 %15, 0
  br i1 %16, label %17, label %24

17:                                               ; preds = %14, %3
  %18 = load ptr, ptr %5, align 8, !tbaa !3
  %19 = getelementptr inbounds nuw %struct.ssl_session_st, ptr %18, i32 0, i32 23
  %20 = getelementptr inbounds nuw %struct.anon, ptr %19, i32 0, i32 6
  store ptr null, ptr %20, align 8, !tbaa !88
  %21 = load ptr, ptr %5, align 8, !tbaa !3
  %22 = getelementptr inbounds nuw %struct.ssl_session_st, ptr %21, i32 0, i32 23
  %23 = getelementptr inbounds nuw %struct.anon, ptr %22, i32 0, i32 7
  store i64 0, ptr %23, align 8, !tbaa !99
  store i32 1, ptr %4, align 4
  br label %45

24:                                               ; preds = %14
  %25 = load ptr, ptr %6, align 8, !tbaa !127
  %26 = load i64, ptr %7, align 8, !tbaa !9
  %27 = call noalias ptr @CRYPTO_memdup(ptr noundef %25, i64 noundef %26, ptr noundef @.str, i32 noundef 1078)
  %28 = load ptr, ptr %5, align 8, !tbaa !3
  %29 = getelementptr inbounds nuw %struct.ssl_session_st, ptr %28, i32 0, i32 23
  %30 = getelementptr inbounds nuw %struct.anon, ptr %29, i32 0, i32 6
  store ptr %27, ptr %30, align 8, !tbaa !88
  %31 = load ptr, ptr %5, align 8, !tbaa !3
  %32 = getelementptr inbounds nuw %struct.ssl_session_st, ptr %31, i32 0, i32 23
  %33 = getelementptr inbounds nuw %struct.anon, ptr %32, i32 0, i32 6
  %34 = load ptr, ptr %33, align 8, !tbaa !88
  %35 = icmp eq ptr %34, null
  br i1 %35, label %36, label %40

36:                                               ; preds = %24
  %37 = load ptr, ptr %5, align 8, !tbaa !3
  %38 = getelementptr inbounds nuw %struct.ssl_session_st, ptr %37, i32 0, i32 23
  %39 = getelementptr inbounds nuw %struct.anon, ptr %38, i32 0, i32 7
  store i64 0, ptr %39, align 8, !tbaa !99
  store i32 0, ptr %4, align 4
  br label %45

40:                                               ; preds = %24
  %41 = load i64, ptr %7, align 8, !tbaa !9
  %42 = load ptr, ptr %5, align 8, !tbaa !3
  %43 = getelementptr inbounds nuw %struct.ssl_session_st, ptr %42, i32 0, i32 23
  %44 = getelementptr inbounds nuw %struct.anon, ptr %43, i32 0, i32 7
  store i64 %41, ptr %44, align 8, !tbaa !99
  store i32 1, ptr %4, align 4
  br label %45

45:                                               ; preds = %40, %36, %17
  %46 = load i32, ptr %4, align 4
  ret i32 %46
}