; Function Attrs: nounwind uwtable
define range(i32 0, 2) i32 @SSL_SESSION_set1_alpn_selected(ptr noundef captures(none) initializes((848, 856)) %0, ptr noundef %1, i64 noundef %2) local_unnamed_addr #3 {
  %4 = getelementptr inbounds nuw i8, ptr %0, i64 840
  %5 = load ptr, ptr %4, align 8, !tbaa !77
  tail call void @CRYPTO_free(ptr noundef %5, ptr noundef nonnull @.str, i32 noundef 1072) #11
  %6 = icmp eq ptr %1, null
  %7 = icmp eq i64 %2, 0
  %or.cond = or i1 %6, %7
  br i1 %or.cond, label %8, label %9

8:                                                ; preds = %3
  tail call void @llvm.memset.p0.i64(ptr noundef nonnull align 8 dereferenceable(16) %4, i8 0, i64 16, i1 false)
  br label %15

9:                                                ; preds = %3
  %10 = tail call noalias ptr @CRYPTO_memdup(ptr noundef nonnull %1, i64 noundef %2, ptr noundef nonnull @.str, i32 noundef 1078) #11
  store ptr %10, ptr %4, align 8, !tbaa !77
  %11 = icmp eq ptr %10, null
  %12 = getelementptr inbounds nuw i8, ptr %0, i64 848
  br i1 %11, label %13, label %14

13:                                               ; preds = %9
  store i64 0, ptr %12, align 8, !tbaa !86
  br label %15

14:                                               ; preds = %9
  store i64 %2, ptr %12, align 8, !tbaa !86
  br label %15

15:                                               ; preds = %14, %13, %8
  %.0 = phi i32 [ 1, %8 ], [ 0, %13 ], [ 1, %14 ]
  ret i32 %.0
}